; Function Attrs: mustprogress nofree norecurse nosync nounwind memory(read, argmem: readwrite, inaccessiblemem: none) uwtable
define dso_local noundef zeroext i1 @_ZN4base8internal10JSONParser10EatCommentEv(ptr nocapture noundef nonnull align 8 dereferenceable(60) %this) local_unnamed_addr #7 align 2 {
entry:
  %pos_ = getelementptr inbounds i8, ptr %this, i64 16
  %0 = load ptr, ptr %pos_, align 8
  %1 = load i8, ptr %0, align 1
  %cmp.not = icmp eq i8 %1, 47
  br i1 %cmp.not, label %lor.lhs.false, label %return

lor.lhs.false:                                    ; preds = %entry
  %add.ptr.i = getelementptr inbounds i8, ptr %0, i64 1
  %end_pos_.i = getelementptr inbounds i8, ptr %this, i64 24
  %2 = load ptr, ptr %end_pos_.i, align 8
  %cmp.i.not = icmp ugt ptr %add.ptr.i, %2
  br i1 %cmp.i.not, label %return, label %if.end

if.end:                                           ; preds = %lor.lhs.false
  %index_.i = getelementptr inbounds i8, ptr %this, i64 32
  %3 = load i32, ptr %index_.i, align 8
  %inc.i = add nsw i32 %3, 1
  store i32 %inc.i, ptr %index_.i, align 8
  store ptr %add.ptr.i, ptr %pos_, align 8
  %4 = load i8, ptr %add.ptr.i, align 1
  switch i8 %4, label %return [
    i8 47, label %while.cond
    i8 42, label %while.cond18
  ]

while.cond:                                       ; preds = %if.end, %while.body
  %5 = phi i32 [ %inc.i13, %while.body ], [ %inc.i, %if.end ]
  %add.ptr.i933 = phi ptr [ %add.ptr.i9, %while.body ], [ %add.ptr.i, %if.end ]
  %add.ptr.i9 = getelementptr inbounds i8, ptr %add.ptr.i933, i64 1
  %cmp.i11.not.not = icmp ule ptr %add.ptr.i9, %2
  br i1 %cmp.i11.not.not, label %while.body, label %return

while.body:                                       ; preds = %while.cond
  %inc.i13 = add nsw i32 %5, 1
  store i32 %inc.i13, ptr %index_.i, align 8
  store ptr %add.ptr.i9, ptr %pos_, align 8
  %6 = load i8, ptr %add.ptr.i9, align 1
  switch i8 %6, label %while.cond [
    i8 13, label %return
    i8 10, label %return
  ]

while.cond18:                                     ; preds = %if.end, %while.body20
  %7 = phi i32 [ %inc.i21, %while.body20 ], [ %inc.i, %if.end ]
  %add.ptr.i1731 = phi ptr [ %add.ptr.i17, %while.body20 ], [ %add.ptr.i, %if.end ]
  %previous_char.0 = phi i8 [ %8, %while.body20 ], [ 0, %if.end ]
  %add.ptr.i17 = getelementptr inbounds i8, ptr %add.ptr.i1731, i64 1
  %cmp.i19.not = icmp ugt ptr %add.ptr.i17, %2
  br i1 %cmp.i19.not, label %return, label %while.body20

while.body20:                                     ; preds = %while.cond18
  %inc.i21 = add nsw i32 %7, 1
  store i32 %inc.i21, ptr %index_.i, align 8
  store ptr %add.ptr.i17, ptr %pos_, align 8
  %8 = load i8, ptr %add.ptr.i17, align 1
  %cmp23 = icmp eq i8 %previous_char.0, 42
  %cmp25 = icmp eq i8 %8, 47
  %or.cond1 = select i1 %cmp23, i1 %cmp25, i1 false
  br i1 %or.cond1, label %if.then26, label %while.cond18, !llvm.loop !21

if.then26:                                        ; preds = %while.body20
  %inc.i25 = add nsw i32 %7, 2
  store i32 %inc.i25, ptr %index_.i, align 8
  %incdec.ptr.i27 = getelementptr inbounds i8, ptr %add.ptr.i1731, i64 2
  store ptr %incdec.ptr.i27, ptr %pos_, align 8
  br label %return

return:                                           ; preds = %while.cond18, %while.cond, %while.body, %while.body, %if.end, %entry, %lor.lhs.false, %if.then26
  %retval.0 = phi i1 [ true, %if.then26 ], [ false, %lor.lhs.false ], [ false, %entry ], [ false, %if.end ], [ %cmp.i11.not.not, %while.body ], [ %cmp.i11.not.not, %while.body ], [ %cmp.i11.not.not, %while.cond ], [ false, %while.cond18 ]
  ret i1 %retval.0
}